target datalayout = "e-m:e-p270:32:32-p271:32:32-p272:64:64-i64:64-i128:128-f80:128-n8:16:32:64-S128"
target triple = "x86_64-pc-linux-gnu"

%struct.DdNode = type { i32, i32, ptr, %union.anon, i64 }
%union.anon = type { %struct.DdChildren }
%struct.DdChildren = type { ptr, ptr }

; Function Attrs: nounwind uwtable
define void @extraCollectNodes(ptr noundef %0, ptr noundef %1) #0 {
  %3 = alloca ptr, align 8
  %4 = alloca ptr, align 8
  %5 = alloca ptr, align 8
  %6 = alloca i32, align 4
  store ptr %0, ptr %3, align 8, !tbaa !28
  store ptr %1, ptr %4, align 8, !tbaa !41
  call void @llvm.lifetime.start.p0(i64 8, ptr %5) #6
  %7 = load ptr, ptr %3, align 8, !tbaa !28
  %8 = ptrtoint ptr %7 to i64
  %9 = and i64 %8, -2
  %10 = inttoptr i64 %9 to ptr
  store ptr %10, ptr %5, align 8, !tbaa !28
  %11 = load ptr, ptr %4, align 8, !tbaa !41
  %12 = load ptr, ptr %5, align 8, !tbaa !28
  %13 = call i32 @st__find_or_add(ptr noundef %11, ptr noundef %12, ptr noundef null)
  %14 = icmp ne i32 %13, 0
  br i1 %14, label %15, label %16

15:                                               ; preds = %2
  store i32 1, ptr %6, align 4
  br label %33

16:                                               ; preds = %2
  %17 = load ptr, ptr %5, align 8, !tbaa !28
  %18 = getelementptr inbounds nuw %struct.DdNode, ptr %17, i32 0, i32 0
  %19 = load i32, ptr %18, align 8, !tbaa !33
  %20 = icmp eq i32 %19, 2147483647
  br i1 %20, label %21, label %22

21:                                               ; preds = %16
  store i32 1, ptr %6, align 4
  br label %33

22:                                               ; preds = %16
  %23 = load ptr, ptr %5, align 8, !tbaa !28
  %24 = getelementptr inbounds nuw %struct.DdNode, ptr %23, i32 0, i32 3
  %25 = getelementptr inbounds nuw %struct.DdChildren, ptr %24, i32 0, i32 1
  %26 = load ptr, ptr %25, align 8, !tbaa !39
  %27 = load ptr, ptr %4, align 8, !tbaa !41
  call void @extraCollectNodes(ptr noundef %26, ptr noundef %27)
  %28 = load ptr, ptr %5, align 8, !tbaa !28
  %29 = getelementptr inbounds nuw %struct.DdNode, ptr %28, i32 0, i32 3
  %30 = getelementptr inbounds nuw %struct.DdChildren, ptr %29, i32 0, i32 0
  %31 = load ptr, ptr %30, align 8, !tbaa !39
  %32 = load ptr, ptr %4, align 8, !tbaa !41
  call void @extraCollectNodes(ptr noundef %31, ptr noundef %32)
  store i32 0, ptr %6, align 4
  br label %33

33:                                               ; preds = %22, %21, %15
  call void @llvm.lifetime.end.p0(i64 8, ptr %5) #6
  %34 = load i32, ptr %6, align 4
  switch i32 %34, label %36 [
    i32 0, label %35
    i32 1, label %35
  ]

35:                                               ; preds = %33, %33
  ret void

36:                                               ; preds = %33
  unreachable
}