; Function Attrs: nounwind uwtable
define void @extraCollectNodes(ptr noundef %0, ptr noundef %1) local_unnamed_addr #0 {
  %3 = ptrtoint ptr %0 to i64
  %4 = and i64 %3, -2
  %5 = inttoptr i64 %4 to ptr
  %6 = tail call i32 @st__find_or_add(ptr noundef %1, ptr noundef %5, ptr noundef null) #11
  %.not9 = icmp eq i32 %6, 0
  br i1 %.not9, label %.lr.ph, label %._crit_edge

.lr.ph:                                           ; preds = %2, %tailrecurse
  %7 = phi ptr [ %16, %tailrecurse ], [ %5, %2 ]
  %8 = load i32, ptr %7, align 8, !tbaa !28
  %9 = icmp eq i32 %8, 2147483647
  br i1 %9, label %._crit_edge, label %tailrecurse

tailrecurse:                                      ; preds = %.lr.ph
  %10 = getelementptr inbounds nuw i8, ptr %7, i64 16
  %11 = getelementptr inbounds nuw i8, ptr %7, i64 24
  %12 = load ptr, ptr %11, align 8, !tbaa !34
  tail call void @extraCollectNodes(ptr noundef %12, ptr noundef %1)
  %13 = load ptr, ptr %10, align 8, !tbaa !34
  %14 = ptrtoint ptr %13 to i64
  %15 = and i64 %14, -2
  %16 = inttoptr i64 %15 to ptr
  %17 = tail call i32 @st__find_or_add(ptr noundef %1, ptr noundef %16, ptr noundef null) #11
  %.not = icmp eq i32 %17, 0
  br i1 %.not, label %.lr.ph, label %._crit_edge

._crit_edge:                                      ; preds = %tailrecurse, %.lr.ph, %2
  ret void
}